; Function Attrs: mustprogress uwtable
define hidden void @mbedtls_pk_free(ptr noundef %0) local_unnamed_addr #1 {
  %2 = icmp eq ptr %0, null
  br i1 %2, label %11, label %3

3:                                                ; preds = %1
  %4 = load ptr, ptr %0, align 8, !tbaa !3
  %.not = icmp eq ptr %4, null
  br i1 %.not, label %10, label %5

5:                                                ; preds = %3
  %6 = getelementptr inbounds nuw i8, ptr %4, i64 80
  %7 = load ptr, ptr %6, align 8, !tbaa !9
  %8 = getelementptr inbounds nuw i8, ptr %0, i64 8
  %9 = load ptr, ptr %8, align 8, !tbaa !13
  tail call void %7(ptr noundef %9)
  br label %10

10:                                               ; preds = %5, %3
  tail call void @mbedtls_platform_zeroize(ptr noundef nonnull %0, i64 noundef 16)
  br label %11

11:                                               ; preds = %1, %10
  ret void
}